; Function Attrs: mustprogress uwtable
define void @_ZN2cv18getAffineTransformERKNS_11_InputArrayES2_(ptr dead_on_unwind noalias writable sret(%"class.cv::Mat") align 8 %0, ptr noundef nonnull align 8 dereferenceable(24) %1, ptr noundef nonnull align 8 dereferenceable(24) %2) local_unnamed_addr #0 personality ptr @__gxx_personality_v0 {
  %4 = alloca %"class.cv::Mat", align 8
  %5 = alloca %"class.cv::Mat", align 8
  %6 = alloca %"class.std::__cxx11::basic_string", align 8
  %7 = alloca %"class.std::allocator", align 1
  call void @llvm.lifetime.start.p0(i64 96, ptr nonnull %4) #24
  %8 = tail call noundef i32 @_ZNK2cv11_InputArray4kindEv(ptr noundef nonnull align 8 dereferenceable(24) %1), !noalias !584
  %9 = icmp eq i32 %8, 65536
  br i1 %9, label %10, label %13

10:                                               ; preds = %3
  %11 = getelementptr inbounds nuw i8, ptr %1, i64 8
  %12 = load ptr, ptr %11, align 8, !tbaa !12, !noalias !584
  call void @_ZN2cv3MatC1ERKS0_(ptr noundef nonnull align 8 dereferenceable(96) %4, ptr noundef nonnull align 8 dereferenceable(96) %12)
  br label %_ZNK2cv11_InputArray6getMatEi.exit

13:                                               ; preds = %3
  call void @_ZNK2cv11_InputArray7getMat_Ei(ptr dead_on_unwind nonnull writable sret(%"class.cv::Mat") align 8 %4, ptr noundef nonnull align 8 dereferenceable(24) %1, i32 noundef -1)
  br label %_ZNK2cv11_InputArray6getMatEi.exit

_ZNK2cv11_InputArray6getMatEi.exit:               ; preds = %10, %13
  call void @llvm.lifetime.start.p0(i64 96, ptr nonnull %5) #24
  %14 = invoke noundef i32 @_ZNK2cv11_InputArray4kindEv(ptr noundef nonnull align 8 dereferenceable(24) %2)
          to label %.noexc unwind label %27

.noexc:                                           ; preds = %_ZNK2cv11_InputArray6getMatEi.exit
  %15 = icmp eq i32 %14, 65536
  br i1 %15, label %16, label %19

16:                                               ; preds = %.noexc
  %17 = getelementptr inbounds nuw i8, ptr %2, i64 8
  %18 = load ptr, ptr %17, align 8, !tbaa !12, !noalias !587
  invoke void @_ZN2cv3MatC1ERKS0_(ptr noundef nonnull align 8 dereferenceable(96) %5, ptr noundef nonnull align 8 dereferenceable(96) %18)
          to label %_ZNK2cv11_InputArray6getMatEi.exit12 unwind label %27

19:                                               ; preds = %.noexc
  invoke void @_ZNK2cv11_InputArray7getMat_Ei(ptr dead_on_unwind nonnull writable sret(%"class.cv::Mat") align 8 %5, ptr noundef nonnull align 8 dereferenceable(24) %2, i32 noundef -1)
          to label %_ZNK2cv11_InputArray6getMatEi.exit12 unwind label %27

_ZNK2cv11_InputArray6getMatEi.exit12:             ; preds = %16, %19
  %20 = invoke noundef i32 @_ZNK2cv3Mat11checkVectorEiib(ptr noundef nonnull align 8 dereferenceable(96) %4, i32 noundef 2, i32 noundef 5, i1 noundef zeroext true)
          to label %21 unwind label %29

21:                                               ; preds = %_ZNK2cv11_InputArray6getMatEi.exit12
  %22 = icmp eq i32 %20, 3
  br i1 %22, label %23, label %31

23:                                               ; preds = %21
  %24 = invoke noundef i32 @_ZNK2cv3Mat11checkVectorEiib(ptr noundef nonnull align 8 dereferenceable(96) %5, i32 noundef 2, i32 noundef 5, i1 noundef zeroext true)
          to label %25 unwind label %29

25:                                               ; preds = %23
  %26 = icmp eq i32 %24, 3
  br i1 %26, label %44, label %31

27:                                               ; preds = %19, %16, %_ZNK2cv11_InputArray6getMatEi.exit
  %28 = landingpad { ptr, i32 }
          cleanup
  br label %51

29:                                               ; preds = %44, %23, %_ZNK2cv11_InputArray6getMatEi.exit12
  %30 = landingpad { ptr, i32 }
          cleanup
  br label %50

31:                                               ; preds = %25, %21
  call void @llvm.lifetime.start.p0(i64 32, ptr nonnull %6) #24
  call void @llvm.lifetime.start.p0(i64 1, ptr nonnull %7) #24
  invoke void @_ZNSt7__cxx1112basic_stringIcSt11char_traitsIcESaIcEEC2EPKcRKS3_(ptr noundef nonnull align 8 dereferenceable(32) %6, ptr noundef nonnull @.str.33, ptr noundef nonnull align 1 dereferenceable(1) %7)
          to label %32 unwind label %34

32:                                               ; preds = %31
  invoke void @_ZN2cv5errorEiRKNSt7__cxx1112basic_stringIcSt11char_traitsIcESaIcEEEPKcS9_i(i32 noundef -215, ptr noundef nonnull align 8 dereferenceable(32) %6, ptr noundef nonnull @__func__._ZN2cv18getAffineTransformERKNS_11_InputArrayES2_, ptr noundef nonnull @.str.1, i32 noundef 3530) #25
          to label %33 unwind label %36

33:                                               ; preds = %32
  unreachable

34:                                               ; preds = %31
  %35 = landingpad { ptr, i32 }
          cleanup
  br label %_ZNSt7__cxx1112basic_stringIcSt11char_traitsIcESaIcEED2Ev.exit

36:                                               ; preds = %32
  %37 = landingpad { ptr, i32 }
          cleanup
  %38 = load ptr, ptr %6, align 8, !tbaa !3
  %39 = getelementptr inbounds nuw i8, ptr %6, i64 16
  %40 = icmp eq ptr %38, %39
  br i1 %40, label %_ZNKSt7__cxx1112basic_stringIcSt11char_traitsIcESaIcEE11_M_is_localEv.exit.thread.i.i, label %_ZNKSt7__cxx1112basic_stringIcSt11char_traitsIcESaIcEE11_M_is_localEv.exit.i.i

_ZNKSt7__cxx1112basic_stringIcSt11char_traitsIcESaIcEE11_M_is_localEv.exit.thread.i.i: ; preds = %36
  %41 = getelementptr inbounds nuw i8, ptr %6, i64 8
  %42 = load i64, ptr %41, align 8, !tbaa !11
  %43 = icmp ult i64 %42, 16
  call void @llvm.assume(i1 %43)
  br label %_ZNSt7__cxx1112basic_stringIcSt11char_traitsIcESaIcEED2Ev.exit

_ZNKSt7__cxx1112basic_stringIcSt11char_traitsIcESaIcEE11_M_is_localEv.exit.i.i: ; preds = %36
  call void @_ZdlPv(ptr noundef %38) #26
  br label %_ZNSt7__cxx1112basic_stringIcSt11char_traitsIcESaIcEED2Ev.exit

_ZNSt7__cxx1112basic_stringIcSt11char_traitsIcESaIcEED2Ev.exit: ; preds = %_ZNKSt7__cxx1112basic_stringIcSt11char_traitsIcESaIcEE11_M_is_localEv.exit.i.i, %_ZNKSt7__cxx1112basic_stringIcSt11char_traitsIcESaIcEE11_M_is_localEv.exit.thread.i.i, %34
  %.pn = phi { ptr, i32 } [ %35, %34 ], [ %37, %_ZNKSt7__cxx1112basic_stringIcSt11char_traitsIcESaIcEE11_M_is_localEv.exit.thread.i.i ], [ %37, %_ZNKSt7__cxx1112basic_stringIcSt11char_traitsIcESaIcEE11_M_is_localEv.exit.i.i ]
  call void @llvm.lifetime.end.p0(i64 1, ptr nonnull %7) #24
  call void @llvm.lifetime.end.p0(i64 32, ptr nonnull %6) #24
  br label %50

44:                                               ; preds = %25
  %45 = getelementptr inbounds nuw i8, ptr %4, i64 16
  %46 = load ptr, ptr %45, align 8, !tbaa !39
  %47 = getelementptr inbounds nuw i8, ptr %5, i64 16
  %48 = load ptr, ptr %47, align 8, !tbaa !39
  invoke void @_ZN2cv18getAffineTransformEPKNS_6Point_IfEES3_(ptr dead_on_unwind writable sret(%"class.cv::Mat") align 8 %0, ptr noundef %46, ptr noundef %48)
          to label %49 unwind label %29

49:                                               ; preds = %44
  call void @_ZN2cv3MatD1Ev(ptr noundef nonnull align 8 dereferenceable(96) %5) #24
  call void @llvm.lifetime.end.p0(i64 96, ptr nonnull %5) #24
  call void @_ZN2cv3MatD1Ev(ptr noundef nonnull align 8 dereferenceable(96) %4) #24
  call void @llvm.lifetime.end.p0(i64 96, ptr nonnull %4) #24
  ret void

50:                                               ; preds = %_ZNSt7__cxx1112basic_stringIcSt11char_traitsIcESaIcEED2Ev.exit, %29
  %.pn7 = phi { ptr, i32 } [ %30, %29 ], [ %.pn, %_ZNSt7__cxx1112basic_stringIcSt11char_traitsIcESaIcEED2Ev.exit ]
  call void @_ZN2cv3MatD1Ev(ptr noundef nonnull align 8 dereferenceable(96) %5) #24
  br label %51

51:                                               ; preds = %50, %27
  %.pn7.pn = phi { ptr, i32 } [ %.pn7, %50 ], [ %28, %27 ]
  call void @llvm.lifetime.end.p0(i64 96, ptr nonnull %5) #24
  call void @_ZN2cv3MatD1Ev(ptr noundef nonnull align 8 dereferenceable(96) %4) #24
  call void @llvm.lifetime.end.p0(i64 96, ptr nonnull %4) #24
  resume { ptr, i32 } %.pn7.pn
}